target datalayout = "e-m:e-p270:32:32-p271:32:32-p272:64:64-i64:64-i128:128-f80:128-n8:16:32:64-S128"
target triple = "x86_64-unknown-linux-gnu"

%"class.node::tracing::InternalTraceBuffer" = type { %"class.node::MutexBase", i8, i64, ptr, %"class.std::vector", i64, i32, i32 }
%"class.node::MutexBase" = type { %union.pthread_mutex_t }
%union.pthread_mutex_t = type { %struct.__pthread_mutex_s }
%struct.__pthread_mutex_s = type { i32, i32, i32, i32, i32, i16, i16, %struct.__pthread_internal_list }
%struct.__pthread_internal_list = type { ptr, ptr }
%"class.std::vector" = type { %"struct.std::_Vector_base" }
%"struct.std::_Vector_base" = type { %"struct.std::_Vector_base<std::unique_ptr<v8::platform::tracing::TraceBufferChunk>, std::allocator<std::unique_ptr<v8::platform::tracing::TraceBufferChunk>>>::_Vector_impl" }
%"struct.std::_Vector_base<std::unique_ptr<v8::platform::tracing::TraceBufferChunk>, std::allocator<std::unique_ptr<v8::platform::tracing::TraceBufferChunk>>>::_Vector_impl" = type { %"struct.std::_Vector_base<std::unique_ptr<v8::platform::tracing::TraceBufferChunk>, std::allocator<std::unique_ptr<v8::platform::tracing::TraceBufferChunk>>>::_Vector_impl_data" }
%"struct.std::_Vector_base<std::unique_ptr<v8::platform::tracing::TraceBufferChunk>, std::allocator<std::unique_ptr<v8::platform::tracing::TraceBufferChunk>>>::_Vector_impl_data" = type { ptr, ptr, ptr }

; Function Attrs: mustprogress nounwind uwtable
define linkonce_odr dso_local noundef i64 @_ZNK4node7tracing19InternalTraceBuffer8CapacityEv(ptr noundef nonnull align 8 dereferenceable(104) %this) #0 comdat align 2 {
entry:
  %this.addr = alloca ptr, align 8
  store ptr %this, ptr %this.addr, align 8
  %this1 = load ptr, ptr %this.addr, align 8
  %max_chunks_ = getelementptr inbounds %"class.node::tracing::InternalTraceBuffer", ptr %this1, i32 0, i32 2
  %0 = load i64, ptr %max_chunks_, align 8
  %mul = mul i64 %0, 64
  ret i64 %mul
}

; Function Attrs: mustprogress nounwind uwtable
define dso_local noundef i64 @_ZNK4node7tracing19InternalTraceBuffer10MakeHandleEmjm(ptr noundef nonnull align 8 dereferenceable(104) %this, i64 noundef %chunk_index, i32 noundef %chunk_seq, i64 noundef %event_index) #0 align 2 {
entry:
  %this.addr = alloca ptr, align 8
  %chunk_index.addr = alloca i64, align 8
  %chunk_seq.addr = alloca i32, align 4
  %event_index.addr = alloca i64, align 8
  store ptr %this, ptr %this.addr, align 8
  store i64 %chunk_index, ptr %chunk_index.addr, align 8
  store i32 %chunk_seq, ptr %chunk_seq.addr, align 4
  store i64 %event_index, ptr %event_index.addr, align 8
  %this1 = load ptr, ptr %this.addr, align 8
  %0 = load i32, ptr %chunk_seq.addr, align 4
  %conv = zext i32 %0 to i64
  %call = call noundef i64 @_ZNK4node7tracing19InternalTraceBuffer8CapacityEv(ptr noundef nonnull align 8 dereferenceable(104) %this1)
  %mul = mul i64 %conv, %call
  %1 = load i64, ptr %chunk_index.addr, align 8
  %mul2 = mul i64 %1, 64
  %add = add i64 %mul, %mul2
  %2 = load i64, ptr %event_index.addr, align 8
  %add3 = add i64 %add, %2
  %shl = shl i64 %add3, 1
  %id_ = getelementptr inbounds %"class.node::tracing::InternalTraceBuffer", ptr %this1, i32 0, i32 7
  %3 = load i32, ptr %id_, align 4
  %conv4 = zext i32 %3 to i64
  %add5 = add i64 %shl, %conv4
  ret i64 %add5
}