; Function Attrs: mustprogress nofree norecurse nosync nounwind willreturn memory(argmem: read) uwtable
define dso_local noundef i64 @_ZNK4node7tracing19InternalTraceBuffer10MakeHandleEmjm(ptr nocapture noundef nonnull readonly align 8 dereferenceable(104) %this, i64 noundef %chunk_index, i32 noundef %chunk_seq, i64 noundef %event_index) local_unnamed_addr #2 align 2 {
entry:
  %conv = zext i32 %chunk_seq to i64
  %max_chunks_.i = getelementptr inbounds i8, ptr %this, i64 48
  %0 = load i64, ptr %max_chunks_.i, align 8
  %mul = mul i64 %0, %conv
  %reass.add = add i64 %mul, %chunk_index
  %1 = shl i64 %reass.add, 7
  %2 = shl i64 %event_index, 1
  %shl = add i64 %1, %2
  %id_ = getelementptr inbounds i8, ptr %this, i64 100
  %3 = load i32, ptr %id_, align 4
  %conv4 = zext i32 %3 to i64
  %add5 = add i64 %shl, %conv4
  ret i64 %add5
}